; Function Attrs: mustprogress uwtable
define void @_ZN15AlignPairWidget21mouseDoubleClickEventEP11QMouseEvent(ptr noundef nonnull align 8 dereferenceable(1367) %0, ptr nocapture noundef readonly %1) unnamed_addr #9 align 2 {
  %3 = getelementptr inbounds i8, ptr %0, i64 1352
  store i8 1, ptr %3, align 8
  %4 = getelementptr inbounds i8, ptr %1, i64 32
  %5 = load double, ptr %4, align 8
  %6 = fcmp ult double %5, 0.000000e+00
  br i1 %6, label %10, label %7

7:                                                ; preds = %2
  %8 = fadd double %5, 5.000000e-01
  %9 = fptosi double %8 to i32
  br label %_Z8QT2VCG_XP7QWidgetP11QMouseEvent.exit

10:                                               ; preds = %2
  %11 = fadd double %5, -1.000000e+00
  %12 = fptosi double %11 to i32
  %13 = sitofp i32 %12 to double
  %14 = fsub double %5, %13
  %15 = fadd double %14, 5.000000e-01
  %16 = fptosi double %15 to i32
  %17 = add nsw i32 %16, %12
  br label %_Z8QT2VCG_XP7QWidgetP11QMouseEvent.exit

_Z8QT2VCG_XP7QWidgetP11QMouseEvent.exit:          ; preds = %7, %10
  %18 = phi i32 [ %9, %7 ], [ %17, %10 ]
  %19 = getelementptr inbounds i8, ptr %0, i64 16
  %20 = load ptr, ptr %19, align 8
  %21 = getelementptr inbounds i8, ptr %20, i64 32
  %22 = load ptr, ptr %21, align 8
  %23 = tail call noundef i32 %22(ptr noundef nonnull align 8 dereferenceable(24) %19, i32 noundef 11)
  %24 = mul nsw i32 %23, %18
  %25 = sitofp i32 %24 to float
  %26 = fptosi float %25 to i32
  %27 = getelementptr inbounds i8, ptr %0, i64 40
  %28 = load ptr, ptr %27, align 8
  %29 = getelementptr inbounds i8, ptr %28, i64 32
  %30 = load i32, ptr %29, align 4
  %31 = getelementptr inbounds i8, ptr %28, i64 24
  %32 = load i32, ptr %31, align 4
  %33 = getelementptr inbounds i8, ptr %1, i64 40
  %34 = load double, ptr %33, align 8
  %35 = fcmp ult double %34, 0.000000e+00
  br i1 %35, label %39, label %36

36:                                               ; preds = %_Z8QT2VCG_XP7QWidgetP11QMouseEvent.exit
  %37 = fadd double %34, 5.000000e-01
  %38 = fptosi double %37 to i32
  br label %_Z8QT2VCG_YP7QWidgetP11QMouseEvent.exit

39:                                               ; preds = %_Z8QT2VCG_XP7QWidgetP11QMouseEvent.exit
  %40 = fadd double %34, -1.000000e+00
  %41 = fptosi double %40 to i32
  %42 = sitofp i32 %41 to double
  %43 = fsub double %34, %42
  %44 = fadd double %43, 5.000000e-01
  %45 = fptosi double %44 to i32
  %46 = add nsw i32 %45, %41
  br label %_Z8QT2VCG_YP7QWidgetP11QMouseEvent.exit

_Z8QT2VCG_YP7QWidgetP11QMouseEvent.exit:          ; preds = %36, %39
  %47 = phi i32 [ %38, %36 ], [ %46, %39 ]
  %.neg7 = add i32 %30, 1
  %48 = add i32 %32, %47
  %49 = sub i32 %.neg7, %48
  %50 = load ptr, ptr %19, align 8
  %51 = getelementptr inbounds i8, ptr %50, i64 32
  %52 = load ptr, ptr %51, align 8
  %53 = tail call noundef i32 %52(ptr noundef nonnull align 8 dereferenceable(24) %19, i32 noundef 11)
  %54 = mul nsw i32 %53, %49
  %55 = sitofp i32 %54 to float
  %56 = fptosi float %55 to i32
  %57 = getelementptr inbounds i8, ptr %0, i64 1356
  %.sroa.2.0.insert.ext = zext i32 %56 to i64
  %.sroa.2.0.insert.shift = shl nuw i64 %.sroa.2.0.insert.ext, 32
  %.sroa.05.0.insert.ext = zext i32 %26 to i64
  %.sroa.05.0.insert.insert = or disjoint i64 %.sroa.2.0.insert.shift, %.sroa.05.0.insert.ext
  store i64 %.sroa.05.0.insert.insert, ptr %57, align 4
  %58 = getelementptr inbounds i8, ptr %1, i64 20
  %.sroa.0.0.copyload.i = load i32, ptr %58, align 4
  %59 = and i32 %.sroa.0.0.copyload.i, 67108864
  %.not = icmp eq i32 %59, 0
  br i1 %.not, label %62, label %60

60:                                               ; preds = %_Z8QT2VCG_YP7QWidgetP11QMouseEvent.exit
  %61 = getelementptr inbounds i8, ptr %0, i64 1353
  store i8 1, ptr %61, align 1
  br label %62

62:                                               ; preds = %60, %_Z8QT2VCG_YP7QWidgetP11QMouseEvent.exit
  tail call void @_ZN7QWidget6updateEv(ptr noundef nonnull align 8 dereferenceable(48) %0)
  ret void
}